(dp0
S'aggregationInfo'
p1
(dp2
S'hours'
p3
I0
sS'microseconds'
p4
I0
sS'seconds'
p5
I0
sS'fields'
p6
(lp7
sS'weeks'
p8
I0
sS'months'
p9
I0
sS'minutes'
p10
I0
sS'days'
p11
I0
sS'milliseconds'
p12
I0
sS'years'
p13
I0
ssS'model'
p14
S'CLA'
p15
sS'version'
p16
I1
sS'predictAheadTime'
p17
NsS'modelParams'
p18
(dp19
S'sensorParams'
p20
(dp21
S'verbosity'
p22
I0
sS'encoders'
p23
(dp24
Vf169
p25
NsVf168
p26
NsVf602
p27
NsVf603
p28
NsVf604
p29
NsVf605
p30
NsVf606
p31
NsVf601
p32
NsVf161
p33
NsVf160
p34
NsVf163
p35
NsVf162
p36
NsVf165
p37
NsVf164
p38
NsVf167
p39
NsVf166
p40
NsVf749
p41
NsVf769
p42
NsVf768
p43
NsVf767
p44
NsVf766
p45
NsVf765
p46
NsVf764
p47
NsVf763
p48
NsVf762
p49
NsVf761
p50
NsVf760
p51
NsVf298
p52
NsVf607
p53
NsVf748
p54
NsVf608
p55
NsVf609
p56
NsVf886
p57
NsVf932
p58
NsVf933
p59
NsVf930
p60
NsVf931
p61
NsVf936
p62
NsVf937
p63
NsVf934
p64
NsVf935
p65
NsVf938
p66
NsVf939
p67
NsVf259
p68
NsVf509
p69
NsVf508
p70
NsVf118
p71
NsVf119
p72
NsVf114
p73
NsVf115
p74
NsVf116
p75
NsVf117
p76
NsVf110
p77
NsVf111
p78
NsVf112
p79
NsVf113
p80
NsVf699
p81
NsVf698
p82
NsVf693
p83
NsVf692
p84
NsVf691
p85
NsVf690
p86
NsVf697
p87
NsVf696
p88
NsVf695
p89
NsVf694
p90
NsVf590
p91
NsVf591
p92
NsVf592
p93
NsVf593
p94
NsVf594
p95
NsVf595
p96
NsVf596
p97
NsVf597
p98
NsVf598
p99
NsVf599
p100
NsVf985
p101
NsVf984
p102
NsVf983
p103
NsVf251
p104
NsVf981
p105
NsVf980
p106
NsVf250
p107
NsVf902
p108
NsVf341
p109
NsVf340
p110
NsVf343
p111
NsVf342
p112
NsVf345
p113
NsVf344
p114
NsVf347
p115
NsVf346
p116
NsVf349
p117
NsVf348
p118
NsVf439
p119
NsVf438
p120
NsVf187
p121
NsVf186
p122
NsVf185
p123
NsVf184
p124
NsVf183
p125
NsVf182
p126
NsVf181
p127
NsVf180
p128
NsVf189
p129
NsVf188
p130
NsVf334
p131
NsVf335
p132
NsVf336
p133
NsVf337
p134
NsVf239
p135
NsVf331
p136
NsVf332
p137
NsVf333
p138
NsVf235
p139
NsVf234
p140
NsVf237
p141
NsVf236
p142
NsVf231
p143
NsVf339
p144
NsVf233
p145
NsVf232
p146
NsVf877
p147
NsVf876
p148
NsVf875
p149
NsVf874
p150
NsVf873
p151
NsVf872
p152
NsVf871
p153
NsVf870
p154
NsVf0
p155
NsVf1
p156
NsVf2
p157
NsVf3
p158
NsVf4
p159
NsVf5
p160
NsVf6
p161
NsVf7
p162
NsVf8
p163
NsVf9
p164
NsVf299
p165
NsVf503
p166
NsVf502
p167
NsVf501
p168
NsVf41
p169
NsVf40
p170
NsVf43
p171
NsVf42
p172
NsVf45
p173
NsVf44
p174
NsVf47
p175
NsVf46
p176
NsVf49
p177
NsVf48
p178
NsVf506
p179
NsVf500
p180
NsVf505
p181
NsVf504
p182
NsVf613
p183
NsVf612
p184
NsVf611
p185
NsVf610
p186
NsVf617
p187
NsVf616
p188
NsVf615
p189
NsVf614
p190
NsVf619
p191
NsVf618
p192
NsVf507
p193
NsVf758
p194
NsVf759
p195
NsVf752
p196
NsVf753
p197
NsVf750
p198
NsVf751
p199
NsVf756
p200
NsVf757
p201
NsVf754
p202
NsVf755
p203
NsVf855
p204
NsVf854
p205
NsVf857
p206
NsVf856
p207
NsVf851
p208
NsVf850
p209
NsVf853
p210
NsVf852
p211
NsVf859
p212
NsVf858
p213
NsVf536
p214
NsVf537
p215
NsVf534
p216
NsVf535
p217
NsVf532
p218
NsVf533
p219
NsVf530
p220
NsVf531
p221
NsVf925
p222
NsVf924
p223
NsVf927
p224
NsVf926
p225
NsVf921
p226
NsVf920
p227
NsVf538
p228
NsVf539
p229
NsVf109
p230
NsVf108
p231
NsVf107
p232
NsVf106
p233
NsVf105
p234
NsVf104
p235
NsVf103
p236
NsVf102
p237
NsVf101
p238
NsVf100
p239
NsVf673
p240
NsVf179
p241
NsVf583
p242
NsVf582
p243
NsVf581
p244
NsVf580
p245
NsVf587
p246
NsVf586
p247
NsVf585
p248
NsVf584
p249
NsVf589
p250
NsVf588
p251
NsVf248
p252
NsVf989
p253
NsVf249
p254
NsVf679
p255
NsVf988
p256
NsVf678
p257
NsVf402
p258
NsVf403
p259
NsVf400
p260
NsVf401
p261
NsVf406
p262
NsVf407
p263
NsVf404
p264
NsVf405
p265
NsVf408
p266
NsVf409
p267
NsVf982
p268
NsVf246
p269
NsVf328
p270
NsVf327
p271
NsVf326
p272
NsVf325
p273
NsVf324
p274
NsVf323
p275
NsVf322
p276
NsVf321
p277
NsVf320
p278
NsVf240
p279
NsVf241
p280
NsVf242
p281
NsVf243
p282
NsVf244
p283
NsVf245
p284
NsVf329
p285
NsVf247
p286
NsVf437
p287
NsVf436
p288
NsVf463
p289
NsVf435
p290
NsVf434
p291
NsVf433
p292
NsVf432
p293
NsVf431
p294
NsVf464
p295
NsVf430
p296
NsVf465
p297
NsVf864
p298
NsVf865
p299
NsVf866
p300
NsVf715
p301
NsVf860
p302
NsVf861
p303
NsVf862
p304
NsVf863
p305
NsVf907
p306
NsVf906
p307
NsVf905
p308
NsVf904
p309
NsVf903
p310
NsVtime_dayOfWeek
p311
NsVf901
p312
NsVf900
p313
NsVf56
p314
NsVf57
p315
NsVf54
p316
NsVf55
p317
NsVf52
p318
NsVf53
p319
NsVf50
p320
NsVf51
p321
NsVf58
p322
NsVf59
p323
NsVf745
p324
NsVf744
p325
NsVf747
p326
NsVf746
p327
NsVf741
p328
NsVf740
p329
NsVf628
p330
NsVf629
p331
NsVf626
p332
NsVf627
p333
NsVf624
p334
NsVf625
p335
NsVf622
p336
NsVf623
p337
NsVf620
p338
NsVf621
p339
NsVf23
p340
NsVf22
p341
NsVf21
p342
NsVf20
p343
NsVf27
p344
NsVf26
p345
NsVf25
p346
NsVf24
p347
NsVf828
p348
NsVf829
p349
NsVf29
p350
NsVf28
p351
NsVf521
p352
NsVf520
p353
NsVf523
p354
NsVf489
p355
NsVf525
p356
NsVf524
p357
NsVf527
p358
NsVf526
p359
NsVf482
p360
NsVf483
p361
NsVf480
p362
NsVf481
p363
NsVf486
p364
NsVf487
p365
NsVf484
p366
NsVf485
p367
NsVf811
p368
NsVf138
p369
NsVf139
p370
NsVf810
p371
NsVf132
p372
NsVf133
p373
NsVf130
p374
NsVf131
p375
NsVf136
p376
NsVf137
p377
NsVf134
p378
NsVf135
p379
NsVf812
p380
NsVf815
p381
NsVf814
p382
NsVf817
p383
NsVf816
p384
NsVf554
p385
NsVf555
p386
NsVf556
p387
NsVf557
p388
NsVf419
p389
NsVf418
p390
NsVf552
p391
NsVf553
p392
NsVf415
p393
NsVf414
p394
NsVf417
p395
NsVf416
p396
NsVf411
p397
NsVf410
p398
NsVf413
p399
NsVf412
p400
NsVf330
p401
NsVf238
p402
NsVf312
p403
NsVf313
p404
NsVf310
p405
NsVf311
p406
NsVf316
p407
NsVf317
p408
NsVf314
p409
NsVf315
p410
NsVf253
p411
NsVf252
p412
NsVf318
p413
NsVf319
p414
NsVf257
p415
NsVf256
p416
NsVf255
p417
NsVf254
p418
NsVf782
p419
NsVf338
p420
NsVf230
p421
NsVf789
p422
NsVf788
p423
NsVlook_x
p424
NsVlook_y
p425
NsS'_classifierInput'
p426
(dp427
S'classifierOnly'
p428
I01
sS'name'
p429
g426
sS'clipInput'
p430
I01
sS'n'
p431
I275
sS'fieldname'
p432
S'move_x'
p433
sS'w'
p434
I21
sS'type'
p435
S'AdaptiveScalarEncoder'
p436
ssVf424
p437
NsVf357
p438
NsVf426
p439
NsVf355
p440
NsVf352
p441
NsVf353
p442
NsVf891
p443
NsVf422
p444
NsVf890
p445
NsVf351
p446
NsVf893
p447
NsVf892
p448
NsVf895
p449
NsVf894
p450
NsVf897
p451
NsVf293
p452
NsVf896
p453
NsVf292
p454
NsVf291
p455
NsVf290
p456
NsVf914
p457
NsVf915
p458
NsVf916
p459
NsVf917
p460
NsVf910
p461
NsVf950
p462
NsVf911
p463
NsVf912
p464
NsVf913
p465
NsVf951
p466
NsVf639
p467
NsVf638
p468
NsVf732
p469
NsVf733
p470
NsVf734
p471
NsVf735
p472
NsVf736
p473
NsVf737
p474
NsVf631
p475
NsVf630
p476
NsVf633
p477
NsVf632
p478
NsVf635
p479
NsVf634
p480
NsVf637
p481
NsVf636
p482
NsVf30
p483
NsVf31
p484
NsVf32
p485
NsVf33
p486
NsVf34
p487
NsVf35
p488
NsVf36
p489
NsVf37
p490
NsVf38
p491
NsVf39
p492
NsVf839
p493
NsVf838
p494
NsVf125
p495
NsVf124
p496
NsVf127
p497
NsVf126
p498
NsVf121
p499
NsVf120
p500
NsVf123
p501
NsVf122
p502
NsVf943
p503
NsVf942
p504
NsVf941
p505
NsVf940
p506
NsVf129
p507
NsVf128
p508
NsVf945
p509
NsVf944
p510
NsVf648
p511
NsVf649
p512
NsVf644
p513
NsVf645
p514
NsVf646
p515
NsVf647
p516
NsVf640
p517
NsVf641
p518
NsVf642
p519
NsVf643
p520
NsVf468
p521
NsVf546
p522
NsVf398
p523
NsVf399
p524
NsVf543
p525
NsVf542
p526
NsVf541
p527
NsVf540
p528
NsVf460
p529
NsVf461
p530
NsVf462
p531
NsVf391
p532
NsVf396
p533
NsVf397
p534
NsVf466
p535
NsVf467
p536
NsVf495
p537
NsVf494
p538
NsVf497
p539
NsVf496
p540
NsVf491
p541
NsVf490
p542
NsVf493
p543
NsVf492
p544
NsVf499
p545
NsVf498
p546
NsVf266
p547
(dp548
g429
S'f266'
p549
sg430
I01
sg431
I272
sg432
g549
sg434
I21
sg435
g436
ssVf267
p550
NsVf264
p551
NsVf265
p552
NsVf262
p553
NsVf263
p554
NsVf260
p555
NsVf261
p556
NsVf987
p557
NsVf268
p558
NsVf269
p559
NsVf309
p560
NsVf308
p561
NsVf305
p562
NsVf304
p563
NsVf307
p564
NsVf306
p565
NsVf301
p566
NsVf300
p567
NsVf303
p568
NsVf302
p569
NsVf962
p570
NsVf986
p571
NsVf790
p572
NsVf791
p573
NsVf798
p574
NsVf799
p575
NsVf730
p576
NsVf731
p577
NsVf884
p578
NsVf885
p579
NsVf882
p580
NsVf883
p581
NsVf880
p582
NsVf881
p583
NsVf813
p584
NsVf738
p585
NsVf739
p586
NsVtime_timeOfDay
p587
NsVf888
p588
NsVf889
p589
NsVf723
p590
NsVf722
p591
NsVf721
p592
NsVf720
p593
NsVf727
p594
NsVf726
p595
NsVf725
p596
NsVf724
p597
NsVf899
p598
NsVf898
p599
NsVf729
p600
NsVf728
p601
NsVf808
p602
NsVf809
p603
NsVf806
p604
NsVf807
p605
NsVf804
p606
NsVf805
p607
NsVf802
p608
NsVf803
p609
NsVf800
p610
NsVf801
p611
NsVf150
p612
NsVf151
p613
NsVf152
p614
NsVf153
p615
NsVf154
p616
NsVf155
p617
NsVf156
p618
NsVf157
p619
NsVf158
p620
NsVf159
p621
NsVf796
p622
NsVf797
p623
NsVf794
p624
NsVf795
p625
NsVf792
p626
NsVf793
p627
NsVf659
p628
NsVf658
p629
NsVf657
p630
NsVf656
p631
NsVf655
p632
NsVf654
p633
NsVf653
p634
NsVf652
p635
NsVf651
p636
NsVf650
p637
NsVf479
p638
NsVf478
p639
NsVf385
p640
NsVf384
p641
NsVf387
p642
NsVf386
p643
NsVf381
p644
NsVf380
p645
NsVf383
p646
NsVf382
p647
NsVf389
p648
NsVf388
p649
NsVf572
p650
NsVf573
p651
NsVf570
p652
NsVf571
p653
NsVf576
p654
NsVf577
p655
NsVf574
p656
NsVf575
p657
NsVf473
p658
NsVf472
p659
NsVf578
p660
NsVf470
p661
NsVf477
p662
NsVf471
p663
NsVf475
p664
NsVf474
p665
NsVf833
p666
NsVf579
p667
NsVf832
p668
NsVf831
p669
NsVf476
p670
NsVf976
p671
NsVf977
p672
NsVf974
p673
NsVf830
p674
NsVf972
p675
NsVf973
p676
NsVf970
p677
NsVf971
p678
NsVf837
p679
NsVf978
p680
NsVf836
p681
NsVf835
p682
NsVf834
p683
NsVf271
p684
NsVf270
p685
NsVf273
p686
NsVf272
p687
NsVf275
p688
NsVf274
p689
NsVf277
p690
NsVf276
p691
NsVf279
p692
NsVf278
p693
NsVf378
p694
NsVf379
p695
NsVf370
p696
NsVf371
p697
NsVf372
p698
NsVf373
p699
NsVf374
p700
NsVf375
p701
NsVf376
p702
NsVf377
p703
NsVf887
p704
NsVf949
p705
NsVf948
p706
NsVf204
p707
NsVf205
p708
NsVf206
p709
NsVf207
p710
NsVf200
p711
NsVf201
p712
NsVf202
p713
NsVf203
p714
NsVf208
p715
NsVf209
p716
NsVf975
p717
NsVf947
p718
NsVf946
p719
NsVf979
p720
NsVf783
p721
NsVf600
p722
NsVf89
p723
NsVf88
p724
NsVf85
p725
NsVf84
p726
NsVf87
p727
NsVf86
p728
NsVf81
p729
NsVf80
p730
NsVf83
p731
NsVf82
p732
NsVf868
p733
NsVf869
p734
NsVf718
p735
NsVf719
p736
NsVf716
p737
NsVf717
p738
NsVf714
p739
NsVf258
p740
NsVf712
p741
NsVf713
p742
NsVf710
p743
NsVf711
p744
NsVf819
p745
NsVf818
p746
NsVf18
p747
NsVf19
p748
NsVf12
p749
NsVf13
p750
NsVf10
p751
NsVf11
p752
NsVf16
p753
NsVf17
p754
NsVf14
p755
NsVf15
p756
NsVf143
p757
NsVf142
p758
NsVf141
p759
NsVf140
p760
NsVf147
p761
NsVf146
p762
NsVf145
p763
NsVf144
p764
NsVf149
p765
NsVf148
p766
NsVf781
p767
NsVf780
p768
NsVf668
p769
NsVf669
p770
NsVf785
p771
NsVf784
p772
NsVf787
p773
NsVf786
p774
NsVf662
p775
NsVf663
p776
NsVf660
p777
NsVf661
p778
NsVf666
p779
NsVf667
p780
NsVf664
p781
NsVf665
p782
NsVf446
p783
NsVf447
p784
NsVf444
p785
NsVf445
p786
NsVf442
p787
NsVf443
p788
NsVf440
p789
NsVf441
p790
NsVf918
p791
NsVf919
p792
NsVf448
p793
NsVf449
p794
NsVf569
p795
NsVf568
p796
NsVf565
p797
NsVf564
p798
NsVf567
p799
NsVf566
p800
NsVf561
p801
NsVf560
p802
NsVf563
p803
NsVf562
p804
NsVf547
p805
NsVf469
p806
NsVf545
p807
NsVf961
p808
NsVf960
p809
NsVf963
p810
NsVf544
p811
NsVf965
p812
NsVf964
p813
NsVf967
p814
NsVf966
p815
NsVf969
p816
NsVf968
p817
NsVf392
p818
NsVf288
p819
NsVf289
p820
NsVf393
p821
NsVf284
p822
NsVf285
p823
NsVf286
p824
NsVf287
p825
NsVf280
p826
NsVf281
p827
NsVf282
p828
NsVf283
p829
NsVf820
p830
NsVf369
p831
NsVf368
p832
NsVf821
p833
NsVf363
p834
NsVf362
p835
NsVf361
p836
NsVf360
p837
NsVf367
p838
NsVf366
p839
NsVf365
p840
NsVf364
p841
NsVf823
p842
NsVf549
p843
NsVf824
p844
NsVf548
p845
NsVf825
p846
NsVf826
p847
NsVf827
p848
NsVf217
p849
NsVf216
p850
NsVf215
p851
NsVf214
p852
NsVf213
p853
NsVf212
p854
NsVf211
p855
NsVf210
p856
NsVf219
p857
NsVf218
p858
NsVf958
p859
NsVf959
p860
NsVf488
p861
NsVf522
p862
NsVf867
p863
NsVf529
p864
NsVf528
p865
NsVf952
p866
NsVf953
p867
NsVf954
p868
NsVf955
p869
NsVf956
p870
NsVf957
p871
NsVf92
p872
NsVf93
p873
NsVf90
p874
NsVf91
p875
NsVf96
p876
NsVf97
p877
NsVf94
p878
NsVf95
p879
NsVf98
p880
NsVf99
p881
NsVf709
p882
NsVf708
p883
NsVf879
p884
NsVf878
p885
NsVf701
p886
NsVf700
p887
NsVf703
p888
NsVf702
p889
NsVf705
p890
NsVf704
p891
NsVf707
p892
NsVf706
p893
NsVtime_weekend
p894
NsVf69
p895
NsVf68
p896
NsVf67
p897
NsVf66
p898
NsVf65
p899
NsVf64
p900
NsVf63
p901
NsVf62
p902
NsVf61
p903
NsVf60
p904
NsVf675
p905
NsVf674
p906
NsVf677
p907
NsVf676
p908
NsVf671
p909
NsVf670
p910
NsVf178
p911
NsVf672
p912
NsVf176
p913
NsVf177
p914
NsVf174
p915
NsVf175
p916
NsVf172
p917
NsVf173
p918
NsVf170
p919
NsVf171
p920
NsVf778
p921
NsVf779
p922
NsVf774
p923
NsVf775
p924
NsVf776
p925
NsVf777
p926
NsVf770
p927
NsVf771
p928
NsVf772
p929
NsVf773
p930
NsVf451
p931
NsVf450
p932
NsVf453
p933
NsVf452
p934
NsVf455
p935
NsVf454
p936
NsVf457
p937
NsVf456
p938
NsVf459
p939
NsVf458
p940
NsVf909
p941
NsVf908
p942
NsVf518
p943
NsVf519
p944
NsVf510
p945
NsVf511
p946
NsVf512
p947
NsVf513
p948
NsVf514
p949
NsVf515
p950
NsVf516
p951
NsVf517
p952
NsVf688
p953
NsVf689
p954
NsVf680
p955
NsVf681
p956
NsVf682
p957
NsVf683
p958
NsVf684
p959
NsVf685
p960
NsVf686
p961
NsVf687
p962
NsVf998
p963
NsVf999
p964
NsVf994
p965
NsVf995
p966
NsVf996
p967
NsVf997
p968
NsVf990
p969
NsVf991
p970
NsVf992
p971
NsVf993
p972
NsVf356
p973
NsVf425
p974
NsVf354
p975
NsVf427
p976
NsVf420
p977
NsVf421
p978
NsVf350
p979
NsVf423
p980
NsVf297
p981
NsVf296
p982
NsVf295
p983
NsVf294
p984
NsVf428
p985
NsVf429
p986
NsVf358
p987
NsVf359
p988
NsVf194
p989
NsVf195
p990
NsVf196
p991
NsVf197
p992
NsVf190
p993
NsVf191
p994
NsVf192
p995
NsVf193
p996
NsVf198
p997
NsVf199
p998
NsVf550
p999
NsVf551
p1000
NsVsequence
p1001
NsVf222
p1002
NsVf223
p1003
NsVf220
p1004
NsVf221
p1005
NsVf226
p1006
NsVf227
p1007
NsVf224
p1008
NsVf225
p1009
NsVf558
p1010
NsVf228
p1011
NsVf229
p1012
NsVf559
p1013
NsVf822
p1014
NsVf929
p1015
NsVf928
p1016
NsVf390
p1017
NsVf923
p1018
NsVf922
p1019
NsVf743
p1020
NsVf742
p1021
NsVf848
p1022
NsVf849
p1023
NsVf394
p1024
NsVf842
p1025
NsVf843
p1026
NsVf840
p1027
NsVf841
p1028
NsVf846
p1029
NsVf847
p1030
NsVf844
p1031
NsVf845
p1032
NsVf395
p1033
NsVmove_x
p1034
NsVmove_y
p1035
NsVf78
p1036
NsVf79
p1037
NsVf74
p1038
NsVf75
p1039
NsVf76
p1040
NsVf77
p1041
NsVf70
p1042
NsVf71
p1043
NsVf72
p1044
NsVf73
p1045
NssS'sensorAutoReset'
p1046
NssS'anomalyParams'
p1047
(dp1048
VanomalyCacheRecords
p1049
NsVautoDetectThreshold
p1050
NsVautoDetectWaitRecords
p1051
NssS'spParams'
p1052
(dp1053
S'columnCount'
p1054
I2048
sS'spVerbosity'
p1055
I0
sS'maxBoost'
p1056
F2.0
sS'spatialImp'
p1057
S'cpp'
p1058
sS'synPermConnected'
p1059
F0.1
sS'numActivePerInhArea'
p1060
I40
sS'seed'
p1061
I1956
sS'globalInhibition'
p1062
I1
sS'inputWidth'
p1063
I0
sS'synPermInactiveDec'
p1064
F0.05015
sS'synPermActiveInc'
p1065
F0.05
sS'coincInputPoolPct'
p1066
F0.8
ssS'spEnable'
p1067
I01
sS'clParams'
p1068
(dp1069
S'alpha'
p1070
F0.050050000000000004
sS'clVerbosity'
p1071
I0
sS'steps'
p1072
S'1'
p1073
sS'regionName'
p1074
S'CLAClassifierRegion'
p1075
ssS'inferenceType'
p1076
S'NontemporalMultiStep'
p1077
sS'tpEnable'
p1078
I01
sS'tpParams'
p1079
(dp1080
g1054
I2048
sS'activationThreshold'
p1081
I14
sS'pamLength'
p1082
I3
sS'cellsPerColumn'
p1083
I32
sS'permanenceInc'
p1084
F0.1
sS'minThreshold'
p1085
I11
sg22
I0
sS'maxSynapsesPerSegment'
p1086
I32
sS'outputType'
p1087
S'normal'
p1088
sS'initialPerm'
p1089
F0.21
sS'globalDecay'
p1090
F0.0
sS'maxAge'
p1091
I0
sS'permanenceDec'
p1092
F0.1
sg1061
I1960
sS'newSynapseCount'
p1093
I20
sS'maxSegmentsPerCell'
p1094
I128
sS'temporalImp'
p1095
g1058
sg1063
I2048
ssS'trainSPNetOnlyIfRequested'
p1096
I00
ss.